; Function Attrs: nounwind uwtable
define hidden void @zflf_property_exists_2(ptr noundef writeonly captures(none) %0, ptr noundef %1, ptr noundef %2) #0 {
  %4 = alloca %struct._zval_struct, align 8
  %5 = alloca ptr, align 8
  call void @llvm.lifetime.start.p0(i64 16, ptr nonnull %4) #14
  call void @llvm.lifetime.start.p0(i64 8, ptr nonnull %5) #14
  %6 = getelementptr inbounds nuw i8, ptr %2, i64 8
  %7 = load i8, ptr %6, align 8, !tbaa !28
  %8 = icmp eq i8 %7, 6
  %9 = load ptr, ptr %2, align 8, !tbaa !28
  br i1 %8, label %24, label %10

10:                                               ; preds = %3
  %11 = load i32, ptr %6, align 8, !tbaa !28
  store ptr %9, ptr %4, align 8, !tbaa !28
  %12 = getelementptr inbounds nuw i8, ptr %4, i64 8
  store i32 %11, ptr %12, align 8, !tbaa !28
  %13 = and i32 %11, 65280
  %.not = icmp eq i32 %13, 0
  %14 = trunc i32 %11 to i8
  br i1 %.not, label %18, label %15

15:                                               ; preds = %10
  %16 = load i32, ptr %9, align 4, !tbaa !30
  %17 = add i32 %16, 1
  store i32 %17, ptr %9, align 4, !tbaa !30
  %.pre = load i8, ptr %12, align 8, !tbaa !28
  br label %18

18:                                               ; preds = %15, %10
  %19 = phi i8 [ %.pre, %15 ], [ %14, %10 ]
  %20 = icmp eq i8 %19, 6
  br i1 %20, label %zend_parse_arg_str_ex.exit.thread, label %zend_parse_arg_str_ex.exit, !prof !69

zend_parse_arg_str_ex.exit.thread:                ; preds = %18
  %21 = load ptr, ptr %4, align 8, !tbaa !28
  store ptr %21, ptr %5, align 8, !tbaa !60
  br label %.thread20

zend_parse_arg_str_ex.exit:                       ; preds = %18
  %22 = call zeroext i1 @zend_flf_parse_arg_str_slow(ptr noundef nonnull %4, ptr noundef nonnull %5, i32 noundef 2) #14
  br i1 %22, label %zend_parse_arg_str_ex.exit..thread20_crit_edge, label %.thread

zend_parse_arg_str_ex.exit..thread20_crit_edge:   ; preds = %zend_parse_arg_str_ex.exit
  %.pre22 = load ptr, ptr %5, align 8, !tbaa !60
  br label %.thread20

.thread:                                          ; preds = %zend_parse_arg_str_ex.exit
  call void @zend_wrong_parameter_type_error(i32 noundef 2, i32 noundef 4, ptr noundef nonnull %4) #14
  br label %26

.thread20:                                        ; preds = %zend_parse_arg_str_ex.exit..thread20_crit_edge, %zend_parse_arg_str_ex.exit.thread
  %23 = phi ptr [ %.pre22, %zend_parse_arg_str_ex.exit..thread20_crit_edge ], [ %21, %zend_parse_arg_str_ex.exit.thread ]
  call fastcc void @_property_exists(ptr noundef %0, ptr noundef %1, ptr noundef %23)
  br label %26

24:                                               ; preds = %3
  store ptr %9, ptr %5, align 8, !tbaa !60
  tail call fastcc void @_property_exists(ptr noundef %0, ptr noundef %1, ptr noundef %9)
  %25 = icmp eq ptr %2, %4
  br i1 %25, label %26, label %27, !prof !64

26:                                               ; preds = %.thread20, %.thread, %24
  %.119 = phi ptr [ %4, %.thread ], [ %2, %24 ], [ %4, %.thread20 ]
  call void @zval_ptr_dtor(ptr noundef nonnull %.119) #14
  br label %27

27:                                               ; preds = %26, %24
  call void @llvm.lifetime.end.p0(i64 8, ptr nonnull %5) #14
  call void @llvm.lifetime.end.p0(i64 16, ptr nonnull %4) #14
  ret void
}